target datalayout = "e-m:e-p270:32:32-p271:32:32-p272:64:64-i64:64-i128:128-f80:128-n8:16:32:64-S128"
target triple = "x86_64-pc-linux-gnu"

%"class.std::__cxx11::basic_string" = type { %"struct.std::__cxx11::basic_string<char>::_Alloc_hider", i64, %union.anon }
%"struct.std::__cxx11::basic_string<char>::_Alloc_hider" = type { ptr }
%union.anon = type { i64, [8 x i8] }
%"class.std::__shared_count" = type { ptr }
%"struct.cv::obsensor::UvcDeviceInfo" = type <{ %"class.std::__cxx11::basic_string", %"class.std::__cxx11::basic_string", %"class.std::__cxx11::basic_string", i16, i16, i16, [2 x i8] }>
%"class.cv::obsensor::IUvcStreamChannel" = type { %"class.cv::obsensor::IStreamChannel", %"struct.cv::obsensor::UvcDeviceInfo", i32, %"struct.cv::Ptr.25" }
%"class.cv::obsensor::IStreamChannel" = type { ptr }
%"struct.cv::Ptr.25" = type { %"class.std::shared_ptr.26" }
%"class.std::shared_ptr.26" = type { %"class.std::__shared_ptr.27" }
%"class.std::__shared_ptr.27" = type { ptr, %"class.std::__shared_count" }

; Function Attrs: mustprogress nounwind uwtable
define linkonce_odr hidden void @_ZNSt14__shared_countILN9__gnu_cxx12_Lock_policyE2EEC2Ev(ptr noundef nonnull align 8 dereferenceable(8) %0) unnamed_addr #6 comdat align 2 {
  %2 = alloca ptr, align 8
  store ptr %0, ptr %2, align 8, !tbaa !236
  %3 = load ptr, ptr %2, align 8
  %4 = getelementptr inbounds nuw %"class.std::__shared_count", ptr %3, i32 0, i32 0
  store ptr null, ptr %4, align 8, !tbaa !238
  ret void
}

; Function Attrs: mustprogress nounwind uwtable
define linkonce_odr hidden void @_ZNSt12__shared_ptrIN2cv8obsensor15IFrameProcessorELN9__gnu_cxx12_Lock_policyE2EEC2Ev(ptr noundef nonnull align 8 dereferenceable(16) %0) unnamed_addr #6 comdat align 2 {
  %2 = alloca ptr, align 8
  store ptr %0, ptr %2, align 8, !tbaa !252
  %3 = load ptr, ptr %2, align 8
  %4 = getelementptr inbounds nuw %"class.std::__shared_ptr.27", ptr %3, i32 0, i32 0
  store ptr null, ptr %4, align 8, !tbaa !398
  %5 = getelementptr inbounds nuw %"class.std::__shared_ptr.27", ptr %3, i32 0, i32 1
  call void @_ZNSt14__shared_countILN9__gnu_cxx12_Lock_policyE2EEC2Ev(ptr noundef nonnull align 8 dereferenceable(8) %5) #3
  ret void
}

; Function Attrs: mustprogress nounwind uwtable
define linkonce_odr hidden void @_ZNSt10shared_ptrIN2cv8obsensor15IFrameProcessorEEC2Ev(ptr noundef nonnull align 8 dereferenceable(16) %0) unnamed_addr #6 comdat align 2 {
  %2 = alloca ptr, align 8
  store ptr %0, ptr %2, align 8, !tbaa !396
  %3 = load ptr, ptr %2, align 8
  call void @_ZNSt12__shared_ptrIN2cv8obsensor15IFrameProcessorELN9__gnu_cxx12_Lock_policyE2EEC2Ev(ptr noundef nonnull align 8 dereferenceable(16) %3) #3
  ret void
}

; Function Attrs: mustprogress nounwind uwtable
define linkonce_odr hidden void @_ZN2cv8obsensor14IStreamChannelD2Ev(ptr noundef nonnull align 8 dereferenceable(8) %0) unnamed_addr #6 comdat align 2 {
  %2 = alloca ptr, align 8
  store ptr %0, ptr %2, align 8, !tbaa !148
  ret void
}

; Function Attrs: inlinehint mustprogress nounwind uwtable
define linkonce_odr hidden void @_ZN2cv3PtrINS_8obsensor15IFrameProcessorEEC2Ev(ptr noundef nonnull align 8 dereferenceable(16) %0) unnamed_addr #9 comdat align 2 {
  %2 = alloca ptr, align 8
  store ptr %0, ptr %2, align 8, !tbaa !150
  %3 = load ptr, ptr %2, align 8
  call void @_ZNSt10shared_ptrIN2cv8obsensor15IFrameProcessorEEC2Ev(ptr noundef nonnull align 8 dereferenceable(16) %3) #3
  ret void
}

; Function Attrs: inlinehint mustprogress nounwind uwtable
define linkonce_odr hidden void @_ZN2cv8obsensor14IStreamChannelC2Ev(ptr noundef nonnull align 8 dereferenceable(8) %0) unnamed_addr #9 comdat align 2 {
  %2 = alloca ptr, align 8
  store ptr %0, ptr %2, align 8, !tbaa !148
  %3 = load ptr, ptr %2, align 8
  store ptr getelementptr inbounds inrange(-16, 64) ({ [10 x ptr] }, ptr @_ZTVN2cv8obsensor14IStreamChannelE, i32 0, i32 0, i32 2), ptr %3, align 8, !tbaa !95
  ret void
}

; Function Attrs: mustprogress uwtable
define hidden void @_ZN2cv8obsensor17IUvcStreamChannelC2ERKNS0_13UvcDeviceInfoE(ptr noundef nonnull align 8 dereferenceable(136) %0, ptr noundef nonnull align 8 dereferenceable(102) %1) unnamed_addr #7 align 2 personality ptr @__gxx_personality_v0 {
  %3 = alloca ptr, align 8
  %4 = alloca ptr, align 8
  %5 = alloca ptr, align 8
  %6 = alloca i32, align 4
  store ptr %0, ptr %3, align 8, !tbaa !137
  store ptr %1, ptr %4, align 8, !tbaa !50
  %7 = load ptr, ptr %3, align 8
  call void @_ZN2cv8obsensor14IStreamChannelC2Ev(ptr noundef nonnull align 8 dereferenceable(8) %7) #3
  store ptr getelementptr inbounds inrange(-16, 80) ({ [12 x ptr] }, ptr @_ZTVN2cv8obsensor17IUvcStreamChannelE, i32 0, i32 0, i32 2), ptr %7, align 8, !tbaa !95
  %8 = getelementptr inbounds nuw %"class.cv::obsensor::IUvcStreamChannel", ptr %7, i32 0, i32 1
  %9 = load ptr, ptr %4, align 8, !tbaa !50
  invoke void @_ZN2cv8obsensor13UvcDeviceInfoC2ERKS1_(ptr noundef nonnull align 8 dereferenceable(102) %8, ptr noundef nonnull align 8 dereferenceable(102) %9)
          to label %10 unwind label %17

10:                                               ; preds = %2
  %11 = getelementptr inbounds nuw %"class.cv::obsensor::IUvcStreamChannel", ptr %7, i32 0, i32 2
  %12 = getelementptr inbounds nuw %"class.cv::obsensor::IUvcStreamChannel", ptr %7, i32 0, i32 1
  %13 = getelementptr inbounds nuw %"struct.cv::obsensor::UvcDeviceInfo", ptr %12, i32 0, i32 1
  %14 = invoke noundef i32 @_ZN2cv8obsensor30parseUvcDeviceNameToStreamTypeERKNSt7__cxx1112basic_stringIcSt11char_traitsIcESaIcEEE(ptr noundef nonnull align 8 dereferenceable(32) %13)
          to label %15 unwind label %21

15:                                               ; preds = %10
  store i32 %14, ptr %11, align 8, !tbaa !139
  %16 = getelementptr inbounds nuw %"class.cv::obsensor::IUvcStreamChannel", ptr %7, i32 0, i32 3
  call void @_ZN2cv3PtrINS_8obsensor15IFrameProcessorEEC2Ev(ptr noundef nonnull align 8 dereferenceable(16) %16) #3
  ret void

17:                                               ; preds = %2
  %18 = landingpad { ptr, i32 }
          cleanup
  %19 = extractvalue { ptr, i32 } %18, 0
  store ptr %19, ptr %5, align 8
  %20 = extractvalue { ptr, i32 } %18, 1
  store i32 %20, ptr %6, align 4
  br label %25

21:                                               ; preds = %10
  %22 = landingpad { ptr, i32 }
          cleanup
  %23 = extractvalue { ptr, i32 } %22, 0
  store ptr %23, ptr %5, align 8
  %24 = extractvalue { ptr, i32 } %22, 1
  store i32 %24, ptr %6, align 4
  call void @_ZN2cv8obsensor13UvcDeviceInfoD2Ev(ptr noundef nonnull align 8 dereferenceable(102) %8) #3
  br label %25

25:                                               ; preds = %21, %17
  call void @_ZN2cv8obsensor14IStreamChannelD2Ev(ptr noundef nonnull align 8 dereferenceable(8) %7) #3
  br label %26

26:                                               ; preds = %25
  %27 = load ptr, ptr %5, align 8
  %28 = load i32, ptr %6, align 4
  %29 = insertvalue { ptr, i32 } poison, ptr %27, 0
  %30 = insertvalue { ptr, i32 } %29, i32 %28, 1
  resume { ptr, i32 } %30
}