; Function Attrs: mustprogress uwtable
define hidden void @_ZN2cv8obsensor17IUvcStreamChannelC2ERKNS0_13UvcDeviceInfoE(ptr noundef nonnull align 8 dereferenceable(136) initializes((0, 8)) %0, ptr noundef nonnull align 8 dereferenceable(102) %1) unnamed_addr #5 align 2 personality ptr @__gxx_personality_v0 {
  store ptr getelementptr inbounds nuw inrange(-16, 80) (i8, ptr @_ZTVN2cv8obsensor17IUvcStreamChannelE, i64 16), ptr %0, align 8, !tbaa !61
  %3 = getelementptr inbounds nuw i8, ptr %0, i64 8
  tail call void @_ZN2cv8obsensor13UvcDeviceInfoC2ERKS1_(ptr noundef nonnull align 8 dereferenceable(102) %3, ptr noundef nonnull align 8 dereferenceable(102) %1)
  %4 = getelementptr inbounds nuw i8, ptr %0, i64 40
  %5 = invoke noundef i32 @_ZN2cv8obsensor30parseUvcDeviceNameToStreamTypeERKNSt7__cxx1112basic_stringIcSt11char_traitsIcESaIcEEE(ptr noundef nonnull align 8 dereferenceable(32) %4)
          to label %6 unwind label %9

6:                                                ; preds = %2
  %7 = getelementptr inbounds nuw i8, ptr %0, i64 112
  store i32 %5, ptr %7, align 8, !tbaa !108
  %8 = getelementptr inbounds nuw i8, ptr %0, i64 120
  tail call void @llvm.memset.p0.i64(ptr noundef nonnull align 8 dereferenceable(16) %8, i8 0, i64 16, i1 false)
  ret void

9:                                                ; preds = %2
  %10 = landingpad { ptr, i32 }
          cleanup
  tail call void @_ZN2cv8obsensor13UvcDeviceInfoD2Ev(ptr noundef nonnull align 8 dereferenceable(102) %3) #28
  resume { ptr, i32 } %10
}